target datalayout = "e-m:e-p270:32:32-p271:32:32-p272:64:64-i64:64-f80:128-n8:16:32:64-S128"
target triple = "x86_64-pc-linux-gnu"

@.str = private unnamed_addr constant [4 x i8] c"YES\00", align 1
@.str.1 = private unnamed_addr constant [3 x i8] c"NO\00", align 1
@.str.2 = private unnamed_addr constant [5 x i8] c"%s%s\00", align 1

; Function Attrs: noinline nounwind uwtable
define dso_local void @jud(i8* %0, i8* %1) #0 {
  %3 = alloca i8*, align 8
  %4 = alloca i8*, align 8
  %5 = alloca i32, align 4
  %6 = alloca [2 x [52 x i32]], align 16
  %7 = alloca i32, align 4
  store i8* %0, i8** %3, align 8
  store i8* %1, i8** %4, align 8
  %8 = bitcast [2 x [52 x i32]]* %6 to i8*
  call void @llvm.memset.p0i8.i64(i8* align 16 %8, i8 0, i64 416, i1 false)
  store i32 0, i32* %7, align 4
  store i32 0, i32* %5, align 4
  br label %9

9:                                                ; preds = %52, %2
  %10 = load i8*, i8** %3, align 8
  %11 = load i32, i32* %5, align 4
  %12 = sext i32 %11 to i64
  %13 = getelementptr inbounds i8, i8* %10, i64 %12
  %14 = load i8, i8* %13, align 1
  %15 = sext i8 %14 to i32
  %16 = icmp ne i32 %15, 0
  br i1 %16, label %17, label %55

17:                                               ; preds = %9
  %18 = load i8*, i8** %3, align 8
  %19 = load i32, i32* %5, align 4
  %20 = sext i32 %19 to i64
  %21 = getelementptr inbounds i8, i8* %18, i64 %20
  %22 = load i8, i8* %21, align 1
  %23 = sext i8 %22 to i32
  %24 = icmp slt i32 %23, 91
  br i1 %24, label %25, label %38

25:                                               ; preds = %17
  %26 = getelementptr inbounds [2 x [52 x i32]], [2 x [52 x i32]]* %6, i64 0, i64 0
  %27 = load i8*, i8** %3, align 8
  %28 = load i32, i32* %5, align 4
  %29 = sext i32 %28 to i64
  %30 = getelementptr inbounds i8, i8* %27, i64 %29
  %31 = load i8, i8* %30, align 1
  %32 = sext i8 %31 to i32
  %33 = sub nsw i32 %32, 65
  %34 = sext i32 %33 to i64
  %35 = getelementptr inbounds [52 x i32], [52 x i32]* %26, i64 0, i64 %34
  %36 = load i32, i32* %35, align 4
  %37 = add nsw i32 %36, 1
  store i32 %37, i32* %35, align 4
  br label %51

38:                                               ; preds = %17
  %39 = getelementptr inbounds [2 x [52 x i32]], [2 x [52 x i32]]* %6, i64 0, i64 0
  %40 = load i8*, i8** %3, align 8
  %41 = load i32, i32* %5, align 4
  %42 = sext i32 %41 to i64
  %43 = getelementptr inbounds i8, i8* %40, i64 %42
  %44 = load i8, i8* %43, align 1
  %45 = sext i8 %44 to i32
  %46 = sub nsw i32 %45, 71
  %47 = sext i32 %46 to i64
  %48 = getelementptr inbounds [52 x i32], [52 x i32]* %39, i64 0, i64 %47
  %49 = load i32, i32* %48, align 4
  %50 = add nsw i32 %49, 1
  store i32 %50, i32* %48, align 4
  br label %51

51:                                               ; preds = %38, %25
  br label %52

52:                                               ; preds = %51
  %53 = load i32, i32* %5, align 4
  %54 = add nsw i32 %53, 1
  store i32 %54, i32* %5, align 4
  br label %9

55:                                               ; preds = %9
  store i32 0, i32* %5, align 4
  br label %56

56:                                               ; preds = %99, %55
  %57 = load i8*, i8** %4, align 8
  %58 = load i32, i32* %5, align 4
  %59 = sext i32 %58 to i64
  %60 = getelementptr inbounds i8, i8* %57, i64 %59
  %61 = load i8, i8* %60, align 1
  %62 = sext i8 %61 to i32
  %63 = icmp ne i32 %62, 0
  br i1 %63, label %64, label %102

64:                                               ; preds = %56
  %65 = load i8*, i8** %4, align 8
  %66 = load i32, i32* %5, align 4
  %67 = sext i32 %66 to i64
  %68 = getelementptr inbounds i8, i8* %65, i64 %67
  %69 = load i8, i8* %68, align 1
  %70 = sext i8 %69 to i32
  %71 = icmp slt i32 %70, 91
  br i1 %71, label %72, label %85

72:                                               ; preds = %64
  %73 = getelementptr inbounds [2 x [52 x i32]], [2 x [52 x i32]]* %6, i64 0, i64 1
  %74 = load i8*, i8** %4, align 8
  %75 = load i32, i32* %5, align 4
  %76 = sext i32 %75 to i64
  %77 = getelementptr inbounds i8, i8* %74, i64 %76
  %78 = load i8, i8* %77, align 1
  %79 = sext i8 %78 to i32
  %80 = sub nsw i32 %79, 65
  %81 = sext i32 %80 to i64
  %82 = getelementptr inbounds [52 x i32], [52 x i32]* %73, i64 0, i64 %81
  %83 = load i32, i32* %82, align 4
  %84 = add nsw i32 %83, 1
  store i32 %84, i32* %82, align 4
  br label %98

85:                                               ; preds = %64
  %86 = getelementptr inbounds [2 x [52 x i32]], [2 x [52 x i32]]* %6, i64 0, i64 1
  %87 = load i8*, i8** %4, align 8
  %88 = load i32, i32* %5, align 4
  %89 = sext i32 %88 to i64
  %90 = getelementptr inbounds i8, i8* %87, i64 %89
  %91 = load i8, i8* %90, align 1
  %92 = sext i8 %91 to i32
  %93 = sub nsw i32 %92, 71
  %94 = sext i32 %93 to i64
  %95 = getelementptr inbounds [52 x i32], [52 x i32]* %86, i64 0, i64 %94
  %96 = load i32, i32* %95, align 4
  %97 = add nsw i32 %96, 1
  store i32 %97, i32* %95, align 4
  br label %98

98:                                               ; preds = %85, %72
  br label %99

99:                                               ; preds = %98
  %100 = load i32, i32* %5, align 4
  %101 = add nsw i32 %100, 1
  store i32 %101, i32* %5, align 4
  br label %56

102:                                              ; preds = %56
  store i32 0, i32* %5, align 4
  br label %103

103:                                              ; preds = %122, %102
  %104 = load i32, i32* %5, align 4
  %105 = icmp slt i32 %104, 52
  br i1 %105, label %106, label %125

106:                                              ; preds = %103
  %107 = getelementptr inbounds [2 x [52 x i32]], [2 x [52 x i32]]* %6, i64 0, i64 0
  %108 = load i32, i32* %5, align 4
  %109 = sext i32 %108 to i64
  %110 = getelementptr inbounds [52 x i32], [52 x i32]* %107, i64 0, i64 %109
  %111 = load i32, i32* %110, align 4
  %112 = getelementptr inbounds [2 x [52 x i32]], [2 x [52 x i32]]* %6, i64 0, i64 1
  %113 = load i32, i32* %5, align 4
  %114 = sext i32 %113 to i64
  %115 = getelementptr inbounds [52 x i32], [52 x i32]* %112, i64 0, i64 %114
  %116 = load i32, i32* %115, align 4
  %117 = icmp ne i32 %111, %116
  br i1 %117, label %118, label %121

118:                                              ; preds = %106
  %119 = load i32, i32* %7, align 4
  %120 = add nsw i32 %119, 1
  store i32 %120, i32* %7, align 4
  br label %121

121:                                              ; preds = %118, %106
  br label %122

122:                                              ; preds = %121
  %123 = load i32, i32* %5, align 4
  %124 = add nsw i32 %123, 1
  store i32 %124, i32* %5, align 4
  br label %103

125:                                              ; preds = %103
  %126 = load i32, i32* %7, align 4
  %127 = icmp eq i32 %126, 0
  br i1 %127, label %128, label %130

128:                                              ; preds = %125
  %129 = call i32 (i8*, ...) @printf(i8* getelementptr inbounds ([4 x i8], [4 x i8]* @.str, i64 0, i64 0))
  br label %132

130:                                              ; preds = %125
  %131 = call i32 (i8*, ...) @printf(i8* getelementptr inbounds ([3 x i8], [3 x i8]* @.str.1, i64 0, i64 0))
  br label %132

132:                                              ; preds = %130, %128
  ret void
}

; Function Attrs: noinline nounwind uwtable
define dso_local i32 @main() #0 {
  %1 = alloca [30 x i8], align 16
  %2 = alloca [30 x i8], align 16
  %3 = getelementptr inbounds [30 x i8], [30 x i8]* %1, i64 0, i64 0
  %4 = getelementptr inbounds [30 x i8], [30 x i8]* %2, i64 0, i64 0
  %5 = call i32 (i8*, ...) @__isoc99_scanf(i8* getelementptr inbounds ([5 x i8], [5 x i8]* @.str.2, i64 0, i64 0), i8* %3, i8* %4)
  %6 = getelementptr inbounds [30 x i8], [30 x i8]* %1, i64 0, i64 0
  %7 = getelementptr inbounds [30 x i8], [30 x i8]* %2, i64 0, i64 0
  call void @jud(i8* %6, i8* %7)
  ret i32 0
}